target datalayout = "e-m:e-p270:32:32-p271:32:32-p272:64:64-i64:64-i128:128-f80:128-n8:16:32:64-S128"
target triple = "x86_64-pc-linux-gnu"

; Function Attrs: mustprogress nounwind uwtable
define noundef i32 @_ZN4Cube11CornerIndexEiii(i32 noundef %0, i32 noundef %1, i32 noundef %2) #1 align 2 {
  %4 = alloca i32, align 4
  %5 = alloca i32, align 4
  %6 = alloca i32, align 4
  store i32 %0, ptr %4, align 4
  store i32 %1, ptr %5, align 4
  store i32 %2, ptr %6, align 4
  %7 = load i32, ptr %6, align 4
  %8 = shl i32 %7, 2
  %9 = load i32, ptr %5, align 4
  %10 = shl i32 %9, 1
  %11 = or i32 %8, %10
  %12 = load i32, ptr %4, align 4
  %13 = or i32 %11, %12
  ret i32 %13
}

; Function Attrs: mustprogress nounwind uwtable
define void @_ZN4Cube17FactorCornerIndexEiRiS0_S0_(i32 noundef %0, ptr noundef nonnull align 4 dereferenceable(4) %1, ptr noundef nonnull align 4 dereferenceable(4) %2, ptr noundef nonnull align 4 dereferenceable(4) %3) #1 align 2 {
  %5 = alloca i32, align 4
  %6 = alloca ptr, align 8
  %7 = alloca ptr, align 8
  %8 = alloca ptr, align 8
  store i32 %0, ptr %5, align 4
  store ptr %1, ptr %6, align 8
  store ptr %2, ptr %7, align 8
  store ptr %3, ptr %8, align 8
  %9 = load i32, ptr %5, align 4
  %10 = ashr i32 %9, 0
  %11 = and i32 %10, 1
  %12 = load ptr, ptr %6, align 8
  store i32 %11, ptr %12, align 4
  %13 = load i32, ptr %5, align 4
  %14 = ashr i32 %13, 1
  %15 = and i32 %14, 1
  %16 = load ptr, ptr %7, align 8
  store i32 %15, ptr %16, align 4
  %17 = load i32, ptr %5, align 4
  %18 = ashr i32 %17, 2
  %19 = and i32 %18, 1
  %20 = load ptr, ptr %8, align 8
  store i32 %19, ptr %20, align 4
  ret void
}

; Function Attrs: mustprogress nounwind uwtable
define void @_ZN4Cube15FactorEdgeIndexEiRiS0_S0_(i32 noundef %0, ptr noundef nonnull align 4 dereferenceable(4) %1, ptr noundef nonnull align 4 dereferenceable(4) %2, ptr noundef nonnull align 4 dereferenceable(4) %3) #1 align 2 {
  %5 = alloca i32, align 4
  %6 = alloca ptr, align 8
  %7 = alloca ptr, align 8
  %8 = alloca ptr, align 8
  store i32 %0, ptr %5, align 4
  store ptr %1, ptr %6, align 8
  store ptr %2, ptr %7, align 8
  store ptr %3, ptr %8, align 8
  %9 = load i32, ptr %5, align 4
  %10 = ashr i32 %9, 2
  %11 = load ptr, ptr %6, align 8
  store i32 %10, ptr %11, align 4
  %12 = load i32, ptr %5, align 4
  %13 = and i32 %12, 1
  %14 = load ptr, ptr %7, align 8
  store i32 %13, ptr %14, align 4
  %15 = load i32, ptr %5, align 4
  %16 = and i32 %15, 2
  %17 = ashr i32 %16, 1
  %18 = load ptr, ptr %8, align 8
  store i32 %17, ptr %18, align 4
  ret void
}

; Function Attrs: mustprogress nounwind uwtable
define noundef i32 @_ZN4Cube22EdgeReflectCornerIndexEii(i32 noundef %0, i32 noundef %1) #1 align 2 {
  %3 = alloca i32, align 4
  %4 = alloca i32, align 4
  %5 = alloca i32, align 4
  %6 = alloca i32, align 4
  %7 = alloca i32, align 4
  %8 = alloca i32, align 4
  %9 = alloca i32, align 4
  store i32 %0, ptr %4, align 4
  store i32 %1, ptr %5, align 4
  %10 = load i32, ptr %5, align 4
  call void @_ZN4Cube15FactorEdgeIndexEiRiS0_S0_(i32 noundef %10, ptr noundef nonnull align 4 dereferenceable(4) %6, ptr noundef nonnull align 4 dereferenceable(4) %7, ptr noundef nonnull align 4 dereferenceable(4) %8)
  %11 = load i32, ptr %4, align 4
  call void @_ZN4Cube17FactorCornerIndexEiRiS0_S0_(i32 noundef %11, ptr noundef nonnull align 4 dereferenceable(4) %7, ptr noundef nonnull align 4 dereferenceable(4) %8, ptr noundef nonnull align 4 dereferenceable(4) %9)
  %12 = load i32, ptr %6, align 4
  switch i32 %12, label %40 [
    i32 0, label %13
    i32 1, label %22
    i32 2, label %31
  ]

13:                                               ; preds = %2
  %14 = load i32, ptr %7, align 4
  %15 = load i32, ptr %8, align 4
  %16 = add nsw i32 %15, 1
  %17 = srem i32 %16, 2
  %18 = load i32, ptr %9, align 4
  %19 = add nsw i32 %18, 1
  %20 = srem i32 %19, 2
  %21 = call noundef i32 @_ZN4Cube11CornerIndexEiii(i32 noundef %14, i32 noundef %17, i32 noundef %20)
  store i32 %21, ptr %3, align 4
  br label %41

22:                                               ; preds = %2
  %23 = load i32, ptr %7, align 4
  %24 = add nsw i32 %23, 1
  %25 = srem i32 %24, 2
  %26 = load i32, ptr %8, align 4
  %27 = load i32, ptr %9, align 4
  %28 = add nsw i32 %27, 1
  %29 = srem i32 %28, 2
  %30 = call noundef i32 @_ZN4Cube11CornerIndexEiii(i32 noundef %25, i32 noundef %26, i32 noundef %29)
  store i32 %30, ptr %3, align 4
  br label %41

31:                                               ; preds = %2
  %32 = load i32, ptr %7, align 4
  %33 = add nsw i32 %32, 1
  %34 = srem i32 %33, 2
  %35 = load i32, ptr %8, align 4
  %36 = add nsw i32 %35, 1
  %37 = srem i32 %36, 2
  %38 = load i32, ptr %9, align 4
  %39 = call noundef i32 @_ZN4Cube11CornerIndexEiii(i32 noundef %34, i32 noundef %37, i32 noundef %38)
  store i32 %39, ptr %3, align 4
  br label %41

40:                                               ; preds = %2
  store i32 -1, ptr %3, align 4
  br label %41

41:                                               ; preds = %40, %31, %22, %13
  %42 = load i32, ptr %3, align 4
  ret i32 %42
}