; Function Attrs: mustprogress nofree norecurse nosync nounwind willreturn memory(none) uwtable
define noundef range(i32 -1, 8) i32 @_ZN4Cube22EdgeReflectCornerIndexEii(i32 noundef %0, i32 noundef %1) local_unnamed_addr #0 align 2 {
  %3 = ashr i32 %1, 2
  switch i32 %3, label %11 [
    i32 0, label %4
    i32 1, label %7
    i32 2, label %9
  ]

4:                                                ; preds = %2
  %5 = and i32 %0, 7
  %6 = xor i32 %5, 6
  br label %11

7:                                                ; preds = %2
  %urem23 = and i32 %0, 7
  %8 = xor i32 %urem23, 5
  br label %11

9:                                                ; preds = %2
  %urem22 = and i32 %0, 7
  %10 = xor i32 %urem22, 3
  br label %11

11:                                               ; preds = %2, %9, %7, %4
  %.0 = phi i32 [ %10, %9 ], [ %8, %7 ], [ %6, %4 ], [ -1, %2 ]
  ret i32 %.0
}